# SymbolsHelper-Confirmed: 6.4.0 amd64
libQt6WebViewQuick.so.6 libqt6webviewquick6 #MINVER#
* Build-Depends-Package: qt6-webview-dev
 _Z28qml_register_types_QtWebViewv@Base 6.2.2
 _ZN13QQuickWebView10itemChangeEN10QQuickItem10ItemChangeERKNS0_14ItemChangeDataE@Base 6.2.2
 _ZN13QQuickWebView10urlChangedEv@Base 6.2.2
 _ZN13QQuickWebView11cookieAddedERK7QStringS2_@Base 6.3.0
 _ZN13QQuickWebView11qt_metacallEN11QMetaObject4CallEiPPv@Base 6.2.2
 _ZN13QQuickWebView11qt_metacastEPKc@Base 6.2.2
 _ZN13QQuickWebView12deleteCookieERK7QStringS2_@Base 6.3.0
 _ZN13QQuickWebView12takeCallbackEi@Base 6.2.2
 _ZN13QQuickWebView12titleChangedEv@Base 6.2.2
 _ZN13QQuickWebView13cookieRemovedERK7QStringS2_@Base 6.3.0
 _ZN13QQuickWebView13runJavaScriptERK7QStringRK8QJSValue@Base 6.2.2
 _ZN13QQuickWebView14loadingChangedEP24QQuickWebViewLoadRequest@Base 6.2.2
 _ZN13QQuickWebView14onFocusRequestEb@Base 6.2.2
 _ZN13QQuickWebView16deleteAllCookiesEv@Base 6.3.0
 _ZN13QQuickWebView16onLoadingChangedERK26QWebViewLoadRequestPrivate@Base 6.2.2
 _ZN13QQuickWebView16setHttpUserAgentERK7QString@Base 6.2.2
 _ZN13QQuickWebView16staticMetaObjectE@Base 6.2.2
 _ZN13QQuickWebView19loadProgressChangedEv@Base 6.2.2
 _ZN13QQuickWebView20httpUserAgentChangedEv@Base 6.2.2
 _ZN13QQuickWebView20runJavaScriptPrivateERK7QStringi@Base 6.2.2
 _ZN13QQuickWebView21onRunJavaScriptResultEiRK8QVariant@Base 6.2.2
 _ZN13QQuickWebView4stopEv@Base 6.2.2
 _ZN13QQuickWebView6goBackEv@Base 6.2.2
 _ZN13QQuickWebView6reloadEv@Base 6.2.2
 _ZN13QQuickWebView6setUrlERK4QUrl@Base 6.2.2
 _ZN13QQuickWebView8loadHtmlERK7QStringRK4QUrl@Base 6.2.2
 _ZN13QQuickWebView9goForwardEv@Base 6.2.2
 _ZN13QQuickWebView9setCookieERK7QStringS2_S2_@Base 6.3.0
 _ZN13QQuickWebViewC1EP10QQuickItem@Base 6.2.2
 _ZN13QQuickWebViewC2EP10QQuickItem@Base 6.2.2
 _ZN13QQuickWebViewD0Ev@Base 6.2.2
 _ZN13QQuickWebViewD1Ev@Base 6.2.2
 _ZN13QQuickWebViewD2Ev@Base 6.2.2
 _ZN20QQuickViewController11qt_metacallEN11QMetaObject4CallEiPPv@Base 6.2.2
 _ZN20QQuickViewController11qt_metacastEPKc@Base 6.2.2
 _ZN20QQuickViewController12updatePolishEv@Base 6.2.2
 _ZN20QQuickViewController14geometryChangeERK6QRectFS2_@Base 6.2.2
 _ZN20QQuickViewController15onWindowChangedEP12QQuickWindow@Base 6.2.2
 _ZN20QQuickViewController16onVisibleChangedEv@Base 6.2.2
 _ZN20QQuickViewController16staticMetaObjectE@Base 6.2.2
 _ZN20QQuickViewController17componentCompleteEv@Base 6.2.2
 _ZN20QQuickViewController20scheduleUpdatePolishEv@Base 6.2.2
 _ZN20QQuickViewController23onSceneGraphInvalidatedEv@Base 6.2.2
 _ZN20QQuickViewController7setViewEP21QNativeViewController@Base 6.2.2
 _ZN20QQuickViewControllerC1EP10QQuickItem@Base 6.2.2
 _ZN20QQuickViewControllerC2EP10QQuickItem@Base 6.2.2
 _ZN20QQuickViewControllerD0Ev@Base 6.2.2
 _ZN20QQuickViewControllerD1Ev@Base 6.2.2
 _ZN20QQuickViewControllerD2Ev@Base 6.2.2
 _ZN24QQuickWebViewLoadRequest11qt_metacallEN11QMetaObject4CallEiPPv@Base 6.2.2
 _ZN24QQuickWebViewLoadRequest11qt_metacastEPKc@Base 6.2.2
 _ZN24QQuickWebViewLoadRequest16staticMetaObjectE@Base 6.2.2
 _ZN24QQuickWebViewLoadRequestC1ERK26QWebViewLoadRequestPrivate@Base 6.2.2
 _ZN24QQuickWebViewLoadRequestC2ERK26QWebViewLoadRequestPrivate@Base 6.2.2
 _ZN24QQuickWebViewLoadRequestD0Ev@Base 6.2.2
 _ZN24QQuickWebViewLoadRequestD1Ev@Base 6.2.2
 _ZN24QQuickWebViewLoadRequestD2Ev@Base 6.2.2
 _ZNK13QQuickWebView10metaObjectEv@Base 6.2.2
 _ZNK13QQuickWebView12canGoForwardEv@Base 6.2.2
 _ZNK13QQuickWebView12loadProgressEv@Base 6.2.2
 _ZNK13QQuickWebView13httpUserAgentEv@Base 6.2.2
 _ZNK13QQuickWebView3urlEv@Base 6.2.2
 _ZNK13QQuickWebView5titleEv@Base 6.2.2
 _ZNK13QQuickWebView9canGoBackEv@Base 6.2.2
 _ZNK13QQuickWebView9isLoadingEv@Base 6.2.2
 _ZNK20QQuickViewController10metaObjectEv@Base 6.2.2
 _ZNK24QQuickWebViewLoadRequest10metaObjectEv@Base 6.2.2
 _ZNK24QQuickWebViewLoadRequest11errorStringEv@Base 6.2.2
 _ZNK24QQuickWebViewLoadRequest3urlEv@Base 6.2.2
 _ZNK24QQuickWebViewLoadRequest6statusEv@Base 6.2.2
 _ZTI13QQuickWebView@Base 6.2.2
 _ZTI20QQuickViewController@Base 6.2.2
 _ZTI24QQuickWebViewLoadRequest@Base 6.2.2
 _ZTS13QQuickWebView@Base 6.2.2
 _ZTS20QQuickViewController@Base 6.2.2
 _ZTS24QQuickWebViewLoadRequest@Base 6.2.2
 _ZTV13QQuickWebView@Base 6.2.2
 _ZTV20QQuickViewController@Base 6.2.2
 _ZTV24QQuickWebViewLoadRequest@Base 6.2.2
 (c++)"non-virtual thunk to QQuickViewController::componentComplete()@Base" 6.2.2
 (c++)"non-virtual thunk to QQuickViewController::~QQuickViewController()@Base" 6.2.2
 (c++)"non-virtual thunk to QQuickWebView::canGoBack() const@Base" 6.2.2
 (c++)"non-virtual thunk to QQuickWebView::canGoForward() const@Base" 6.2.2
 (c++)"non-virtual thunk to QQuickWebView::deleteAllCookies()@Base" 6.3.0
 (c++)"non-virtual thunk to QQuickWebView::deleteCookie(QString const&, QString const&)@Base" 6.3.0
 (c++)"non-virtual thunk to QQuickWebView::goBack()@Base" 6.2.2
 (c++)"non-virtual thunk to QQuickWebView::goForward()@Base" 6.2.2
 (c++)"non-virtual thunk to QQuickWebView::httpUserAgent() const@Base" 6.2.2
 (c++)"non-virtual thunk to QQuickWebView::isLoading() const@Base" 6.2.2
 (c++)"non-virtual thunk to QQuickWebView::loadHtml(QString const&, QUrl const&)@Base" 6.2.2
 (c++)"non-virtual thunk to QQuickWebView::loadProgress() const@Base" 6.2.2
 (c++)"non-virtual thunk to QQuickWebView::reload()@Base" 6.2.2
 (c++)"non-virtual thunk to QQuickWebView::runJavaScriptPrivate(QString const&, int)@Base" 6.2.2
 (c++)"non-virtual thunk to QQuickWebView::setCookie(QString const&, QString const&, QString const&)@Base" 6.3.0
 (c++)"non-virtual thunk to QQuickWebView::setHttpUserAgent(QString const&)@Base" 6.2.2
 (c++)"non-virtual thunk to QQuickWebView::setUrl(QUrl const&)@Base" 6.2.2
 (c++)"non-virtual thunk to QQuickWebView::stop()@Base" 6.2.2
 (c++)"non-virtual thunk to QQuickWebView::title() const@Base" 6.2.2
 (c++)"non-virtual thunk to QQuickWebView::url() const@Base" 6.2.2
 (c++)"non-virtual thunk to QQuickWebView::~QQuickWebView()@Base" 6.2.2
