# SymbolsHelper-Confirmed: 6.4.1 amd64
libQt6WebView.so.6 libqt6webview6 #MINVER#
* Build-Depends-Package: qt6-webview-dev
 _ZN14QWebViewPlugin11qt_metacallEN11QMetaObject4CallEiPPv@Base 6.2.2
 _ZN14QWebViewPlugin11qt_metacastEPKc@Base 6.2.2
 _ZN14QWebViewPlugin16staticMetaObjectE@Base 6.2.2
 _ZN14QWebViewPluginC1EP7QObject@Base 6.2.2
 _ZN14QWebViewPluginC2EP7QObject@Base 6.2.2
 _ZN14QWebViewPluginD0Ev@Base 6.2.2
 _ZN14QWebViewPluginD1Ev@Base 6.2.2
 _ZN14QWebViewPluginD2Ev@Base 6.2.2
 _ZN16QAbstractWebView10urlChangedERK4QUrl@Base 6.2.2
 _ZN16QAbstractWebView11cookieAddedERK7QStringS2_@Base 6.3.0
 _ZN16QAbstractWebView11qt_metacallEN11QMetaObject4CallEiPPv@Base 6.2.2
 _ZN16QAbstractWebView11qt_metacastEPKc@Base 6.2.2
 _ZN16QAbstractWebView12requestFocusEb@Base 6.2.2
 _ZN16QAbstractWebView12titleChangedERK7QString@Base 6.2.2
 _ZN16QAbstractWebView13cookieRemovedERK7QStringS2_@Base 6.3.0
 _ZN16QAbstractWebView14loadingChangedERK26QWebViewLoadRequestPrivate@Base 6.2.2
 _ZN16QAbstractWebView16javaScriptResultEiRK8QVariant@Base 6.2.2
 _ZN16QAbstractWebView16staticMetaObjectE@Base 6.2.2
 _ZN16QAbstractWebView19loadProgressChangedEi@Base 6.2.2
 _ZN16QAbstractWebView20httpUserAgentChangedERK7QString@Base 6.2.2
 _ZN26QWebViewLoadRequestPrivateC1ERK4QUrlN8QWebView10LoadStatusERK7QString@Base 6.2.2
 _ZN26QWebViewLoadRequestPrivateC1Ev@Base 6.2.2
 _ZN26QWebViewLoadRequestPrivateC2ERK4QUrlN8QWebView10LoadStatusERK7QString@Base 6.2.2
 _ZN26QWebViewLoadRequestPrivateC2Ev@Base 6.2.2
 _ZN26QWebViewLoadRequestPrivateD1Ev@Base 6.2.2
 _ZN26QWebViewLoadRequestPrivateD2Ev@Base 6.2.2
 _ZN8QWebView10setVisibleEb@Base 6.2.2
 _ZN8QWebView10urlChangedEv@Base 6.2.2
 _ZN8QWebView11cookieAddedERK7QStringS2_@Base 6.3.0
 _ZN8QWebView11qt_metacallEN11QMetaObject4CallEiPPv@Base 6.2.2
 _ZN8QWebView11qt_metacastEPKc@Base 6.2.2
 _ZN8QWebView11setGeometryERK5QRect@Base 6.2.2
 _ZN8QWebView12deleteCookieERK7QStringS2_@Base 6.3.0
 _ZN8QWebView12onUrlChangedERK4QUrl@Base 6.2.2
 _ZN8QWebView12requestFocusEb@Base 6.2.2
 _ZN8QWebView12titleChangedEv@Base 6.2.2
 _ZN8QWebView12updatePolishEv@Base 6.4.1
 _ZN8QWebView13cookieRemovedERK7QStringS2_@Base 6.3.0
 _ZN8QWebView13setParentViewEP7QObject@Base 6.2.2
 _ZN8QWebView13setVisibilityEN7QWindow10VisibilityE@Base 6.2.2
 _ZN8QWebView14loadingChangedERK26QWebViewLoadRequestPrivate@Base 6.2.2
 _ZN8QWebView14onTitleChangedERK7QString@Base 6.2.2
 _ZN8QWebView16deleteAllCookiesEv@Base 6.3.0
 _ZN8QWebView16javaScriptResultEiRK8QVariant@Base 6.2.2
 _ZN8QWebView16onLoadingChangedERK26QWebViewLoadRequestPrivate@Base 6.2.2
 _ZN8QWebView16setHttpUserAgentERK7QString@Base 6.2.2
 _ZN8QWebView16staticMetaObjectE@Base 6.2.2
 _ZN8QWebView19loadProgressChangedEv@Base 6.2.2
 _ZN8QWebView20httpUserAgentChangedEv@Base 6.2.2
 _ZN8QWebView20runJavaScriptPrivateERK7QStringi@Base 6.2.2
 _ZN8QWebView21onLoadProgressChangedEi@Base 6.2.2
 _ZN8QWebView22onHttpUserAgentChangedERK7QString@Base 6.2.2
 _ZN8QWebView4initEv@Base 6.2.2
 _ZN8QWebView4stopEv@Base 6.2.2
 _ZN8QWebView6goBackEv@Base 6.2.2
 _ZN8QWebView6reloadEv@Base 6.2.2
 _ZN8QWebView6setUrlERK4QUrl@Base 6.2.2
 _ZN8QWebView8loadHtmlERK7QStringRK4QUrl@Base 6.2.2
 _ZN8QWebView8setFocusEb@Base 6.2.2
 _ZN8QWebView9goForwardEv@Base 6.2.2
 _ZN8QWebView9setCookieERK7QStringS2_S2_@Base 6.3.0
 _ZN8QWebViewC1EP7QObject@Base 6.2.2
 _ZN8QWebViewC2EP7QObject@Base 6.2.2
 _ZN8QWebViewD0Ev@Base 6.2.2
 _ZN8QWebViewD1Ev@Base 6.2.2
 _ZN8QWebViewD2Ev@Base 6.2.2
 _ZN9QtWebView10initializeEv@Base 6.2.2
 _ZNK14QWebViewPlugin10metaObjectEv@Base 6.2.2
 _ZNK14QWebViewPlugin7prepareEv@Base 6.2.2
 _ZNK16QAbstractWebView10metaObjectEv@Base 6.2.2
 _ZNK8QWebView10metaObjectEv@Base 6.2.2
 _ZNK8QWebView10parentViewEv@Base 6.2.2
 _ZNK8QWebView12canGoForwardEv@Base 6.2.2
 _ZNK8QWebView12loadProgressEv@Base 6.2.2
 _ZNK8QWebView13httpUserAgentEv@Base 6.2.2
 _ZNK8QWebView3urlEv@Base 6.2.2
 _ZNK8QWebView5titleEv@Base 6.2.2
 _ZNK8QWebView9canGoBackEv@Base 6.2.2
 _ZNK8QWebView9isLoadingEv@Base 6.2.2
 _ZTI14QWebViewPlugin@Base 6.2.2
 _ZTI16QAbstractWebView@Base 6.2.2
 _ZTI8QWebView@Base 6.2.2
 _ZTS14QWebViewPlugin@Base 6.2.2
 _ZTS16QAbstractWebView@Base 6.2.2
 _ZTS8QWebView@Base 6.2.2
 _ZTV14QWebViewPlugin@Base 6.2.2
 _ZTV16QAbstractWebView@Base 6.2.2
 _ZTV8QWebView@Base 6.2.2
 (c++)"non-virtual thunk to QWebView::canGoBack() const@Base" 6.2.2
 (c++)"non-virtual thunk to QWebView::canGoForward() const@Base" 6.2.2
 (c++)"non-virtual thunk to QWebView::deleteAllCookies()@Base" 6.3.0
 (c++)"non-virtual thunk to QWebView::deleteCookie(QString const&, QString const&)@Base" 6.3.0
 (c++)"non-virtual thunk to QWebView::goBack()@Base" 6.2.2
 (c++)"non-virtual thunk to QWebView::goForward()@Base" 6.2.2
 (c++)"non-virtual thunk to QWebView::httpUserAgent() const@Base" 6.2.2
 (c++)"non-virtual thunk to QWebView::init()@Base" 6.2.2
 (c++)"non-virtual thunk to QWebView::isLoading() const@Base" 6.2.2
 (c++)"non-virtual thunk to QWebView::loadHtml(QString const&, QUrl const&)@Base" 6.2.2
 (c++)"non-virtual thunk to QWebView::loadProgress() const@Base" 6.2.2
 (c++)"non-virtual thunk to QWebView::parentView() const@Base" 6.2.2
 (c++)"non-virtual thunk to QWebView::reload()@Base" 6.2.2
 (c++)"non-virtual thunk to QWebView::runJavaScriptPrivate(QString const&, int)@Base" 6.2.2
 (c++)"non-virtual thunk to QWebView::setCookie(QString const&, QString const&, QString const&)@Base" 6.3.0
 (c++)"non-virtual thunk to QWebView::setFocus(bool)@Base" 6.2.2
 (c++)"non-virtual thunk to QWebView::setGeometry(QRect const&)@Base" 6.2.2
 (c++)"non-virtual thunk to QWebView::setHttpUserAgent(QString const&)@Base" 6.2.2
 (c++)"non-virtual thunk to QWebView::setParentView(QObject*)@Base" 6.2.2
 (c++)"non-virtual thunk to QWebView::setUrl(QUrl const&)@Base" 6.2.2
 (c++)"non-virtual thunk to QWebView::setVisibility(QWindow::Visibility)@Base" 6.2.2
 (c++)"non-virtual thunk to QWebView::setVisible(bool)@Base" 6.2.2
 (c++)"non-virtual thunk to QWebView::stop()@Base" 6.2.2
 (c++)"non-virtual thunk to QWebView::title() const@Base" 6.2.2
 (c++)"non-virtual thunk to QWebView::updatePolish()@Base" 6.4.1
 (c++)"non-virtual thunk to QWebView::url() const@Base" 6.2.2
 (c++)"non-virtual thunk to QWebView::~QWebView()@Base" 6.2.2
